Certificate:
    Data:
        Version: 3 (0x2)
        Serial Number: 1 (0x1)
        Signature Algorithm: sha256WithRSAEncryption
        Issuer: C=Ca, ST=Ontario, L=Toronto, O=horselessnewspaper, OU=horseless cms template, CN=horselessnewspaper.com/emailAddress=cms@horselessnewspaper.com
        Validity
            Not Before: Jan 16 19:14:48 2022 GMT
            Not After : Oct 12 19:14:48 2024 GMT
        Subject: C=Ca, ST=On, L=Toronto, O=horselessnewspaper, CN=cms.horselessnewspaper.com
        Subject Public Key Info:
            Public Key Algorithm: rsaEncryption
                RSA Public-Key: (2048 bit)
                Modulus:
                    00:bd:87:53:02:9b:74:e1:9a:b5:89:1d:4c:8c:c6:
                    68:45:a6:68:9a:43:59:97:97:8b:0b:51:e9:a2:b3:
                    50:24:bc:36:ef:45:d4:fe:e4:0e:5b:9a:8c:83:d5:
                    dd:e9:23:d9:c5:a9:5b:e1:83:ac:31:d2:ce:83:cf:
                    d7:17:07:13:64:0b:1e:16:bc:1a:6f:41:c5:90:d7:
                    33:67:06:bb:2c:ee:df:ce:09:3a:f5:9b:26:cc:e8:
                    6d:b5:26:98:0a:72:6e:47:a6:4b:7e:cf:7c:89:f3:
                    e6:6a:bc:06:08:1a:25:13:d0:42:63:76:7e:10:2d:
                    fe:a2:0b:0d:ec:43:89:96:3d:16:5f:29:53:b8:c2:
                    f7:48:ff:31:8d:4a:44:5d:20:b0:d2:be:35:20:b3:
                    dd:e1:bb:8a:e4:dd:51:85:6b:0e:d0:90:56:07:6f:
                    25:3d:46:8e:99:fc:2e:54:90:75:31:65:43:f7:72:
                    53:4b:d6:7f:c5:64:39:b0:97:98:e7:be:34:96:b8:
                    2f:8b:85:aa:79:6b:b3:b4:9f:2d:7d:8d:7b:af:81:
                    45:61:46:74:af:0a:c5:94:2b:4b:ae:8c:0d:5e:0e:
                    89:45:d1:71:cf:92:96:f8:d1:9b:21:17:2a:ec:fe:
                    19:fd:78:5e:28:18:ab:2a:04:a8:ba:9a:11:02:f1:
                    39:7d
                Exponent: 65537 (0x10001)
        X509v3 extensions:
            X509v3 Subject Key Identifier: 
                29:E1:7B:70:79:8D:7C:9E:3C:8A:37:25:FE:A6:A3:DC:38:CC:1D:3A
            X509v3 Authority Key Identifier: 
                keyid:D4:3E:B9:2A:A9:10:01:BA:8F:55:27:A3:4F:3F:17:B6:1C:21:82:7C

            X509v3 Basic Constraints: 
                CA:FALSE
            X509v3 Key Usage: 
                Digital Signature, Key Encipherment
            X509v3 Subject Alternative Name: 
                DNS:horselessnewspaper.com, DNS:cms.horselessnewspaper.com, DNS:cms.electricrucible.app, DNS:cms.electricrucible.com
            Netscape Comment: 
                OpenSSL Generated Certificate
    Signature Algorithm: sha256WithRSAEncryption
         45:95:af:5f:de:94:32:5a:1f:0b:b4:f2:16:67:0e:1c:73:71:
         d1:c4:e6:9c:13:b1:29:60:5f:04:b0:7f:c5:44:30:44:35:43:
         e7:b9:65:3c:4a:47:55:50:04:c7:64:ef:d2:40:3a:16:17:09:
         18:b5:01:16:01:9a:30:8b:3d:d6:0c:d0:6c:08:a6:07:33:1d:
         63:07:a3:c1:21:6a:ce:43:b6:6b:87:99:ff:1b:2f:05:10:c9:
         48:d0:77:b1:e5:1f:73:72:9f:28:b0:8e:e1:bf:3b:41:77:78:
         f3:42:aa:71:cd:99:56:c2:c8:0d:2f:60:bb:25:87:d9:87:f6:
         e1:e8:45:0e:8c:2a:bc:6a:20:cd:3c:7a:6f:4f:3a:2c:da:ba:
         34:83:4b:6f:d9:e0:6c:04:09:da:36:c6:51:85:96:ed:c3:6a:
         d9:df:ab:16:51:0e:f9:98:d1:8b:ab:a8:9f:49:56:af:cc:cd:
         a7:47:3a:e6:80:c5:c0:db:ec:b6:8e:06:4b:bf:7f:57:c8:7b:
         f6:87:de:0a:6f:e1:ff:d4:c4:d7:b1:40:4a:1d:8a:13:91:f6:
         b0:00:f6:6b:60:be:ed:f3:a3:3e:d8:f4:11:ef:e1:bc:8a:9f:
         00:3b:b5:58:5a:45:0c:64:3c:bf:08:ec:90:3c:e0:d3:bd:52:
         75:eb:a8:ff:e1:3c:06:09:8c:dd:52:f0:60:14:d3:f5:31:e9:
         b0:35:3e:92:ff:87:fd:2c:71:f7:8b:c6:a6:de:1d:f5:55:72:
         f9:68:e5:3a:f7:b6:34:58:f6:98:c0:c2:8d:2c:31:f3:b4:b2:
         96:17:ad:fe:d6:4c:fc:49:2c:85:53:d6:f9:30:99:48:a6:cb:
         10:18:1f:f7:45:96:29:c2:00:78:50:6a:af:72:fd:2b:93:6c:
         af:eb:15:6b:e9:53:2e:61:05:57:83:60:bc:e6:f7:f2:b0:99:
         38:2c:c7:fb:9c:f7:59:cb:7c:47:36:04:b0:30:08:dd:56:d1:
         f3:71:4c:13:09:06:5a:4b:d1:86:6f:1e:af:92:64:72:45:ea:
         9e:e7:99:9a:4e:ff:d3:32:eb:b4:60:71:f7:b4:1b:a1:ce:25:
         27:40:2d:39:d7:52:2c:32:0b:1c:7a:69:69:dd:67:52:1a:46:
         55:60:79:5d:1a:ee:9a:d1:2e:d5:58:a2:52:6f:91:c9:79:31:
         02:d4:0e:ff:5f:e0:d7:12:88:0f:a0:9f:9c:4a:26:a5:d8:40:
         02:33:ed:d4:c5:4e:08:69:b1:18:49:18:68:a1:44:42:5d:59:
         b3:73:59:38:6c:1a:3a:40:a0:6d:f0:d2:ab:25:7c:d8:f1:09:
         76:d4:a0:25:72:ef:08:11
-----BEGIN CERTIFICATE-----
MIIFoDCCA4igAwIBAgIBATANBgkqhkiG9w0BAQsFADCBuzELMAkGA1UEBhMCQ2Ex
EDAOBgNVBAgMB09udGFyaW8xEDAOBgNVBAcMB1Rvcm9udG8xGzAZBgNVBAoMEmhv
cnNlbGVzc25ld3NwYXBlcjEfMB0GA1UECwwWaG9yc2VsZXNzIGNtcyB0ZW1wbGF0
ZTEfMB0GA1UEAwwWaG9yc2VsZXNzbmV3c3BhcGVyLmNvbTEpMCcGCSqGSIb3DQEJ
ARYaY21zQGhvcnNlbGVzc25ld3NwYXBlci5jb20wHhcNMjIwMTE2MTkxNDQ4WhcN
MjQxMDEyMTkxNDQ4WjBuMQswCQYDVQQGEwJDYTELMAkGA1UECAwCT24xEDAOBgNV
BAcMB1Rvcm9udG8xGzAZBgNVBAoMEmhvcnNlbGVzc25ld3NwYXBlcjEjMCEGA1UE
AwwaY21zLmhvcnNlbGVzc25ld3NwYXBlci5jb20wggEiMA0GCSqGSIb3DQEBAQUA
A4IBDwAwggEKAoIBAQC9h1MCm3ThmrWJHUyMxmhFpmiaQ1mXl4sLUemis1AkvDbv
RdT+5A5bmoyD1d3pI9nFqVvhg6wx0s6Dz9cXBxNkCx4WvBpvQcWQ1zNnBrss7t/O
CTr1mybM6G21JpgKcm5Hpkt+z3yJ8+ZqvAYIGiUT0EJjdn4QLf6iCw3sQ4mWPRZf
KVO4wvdI/zGNSkRdILDSvjUgs93hu4rk3VGFaw7QkFYHbyU9Ro6Z/C5UkHUxZUP3
clNL1n/FZDmwl5jnvjSWuC+Lhap5a7O0ny19jXuvgUVhRnSvCsWUK0uujA1eDolF
0XHPkpb40ZshFyrs/hn9eF4oGKsqBKi6mhEC8Tl9AgMBAAGjgfowgfcwHQYDVR0O
BBYEFCnhe3B5jXyePIo3Jf6mo9w4zB06MB8GA1UdIwQYMBaAFNQ+uSqpEAG6j1Un
o08/F7YcIYJ8MAkGA1UdEwQCMAAwCwYDVR0PBAQDAgWgMG8GA1UdEQRoMGaCFmhv
cnNlbGVzc25ld3NwYXBlci5jb22CGmNtcy5ob3JzZWxlc3NuZXdzcGFwZXIuY29t
ghdjbXMuZWxlY3RyaWNydWNpYmxlLmFwcIIXY21zLmVsZWN0cmljcnVjaWJsZS5j
b20wLAYJYIZIAYb4QgENBB8WHU9wZW5TU0wgR2VuZXJhdGVkIENlcnRpZmljYXRl
MA0GCSqGSIb3DQEBCwUAA4ICAQBFla9f3pQyWh8LtPIWZw4cc3HRxOacE7EpYF8E
sH/FRDBENUPnuWU8SkdVUATHZO/SQDoWFwkYtQEWAZowiz3WDNBsCKYHMx1jB6PB
IWrOQ7Zrh5n/Gy8FEMlI0Hex5R9zcp8osI7hvztBd3jzQqpxzZlWwsgNL2C7JYfZ
h/bh6EUOjCq8aiDNPHpvTzos2ro0g0tv2eBsBAnaNsZRhZbtw2rZ36sWUQ75mNGL
q6ifSVavzM2nRzrmgMXA2+y2jgZLv39XyHv2h94Kb+H/1MTXsUBKHYoTkfawAPZr
YL7t86M+2PQR7+G8ip8AO7VYWkUMZDy/COyQPODTvVJ166j/4TwGCYzdUvBgFNP1
MemwNT6S/4f9LHH3i8am3h31VXL5aOU697Y0WPaYwMKNLDHztLKWF63+1kz8SSyF
U9b5MJlIpssQGB/3RZYpwgB4UGqvcv0rk2yv6xVr6VMuYQVXg2C85vfysJk4LMf7
nPdZy3xHNgSwMAjdVtHzcUwTCQZaS9GGbx6vkmRyReqe55maTv/TMuu0YHH3tBuh
ziUnQC0511IsMgscemlp3WdSGkZVYHldGu6a0S7VWKJSb5HJeTEC1A7/X+DXEogP
oJ+cSial2EACM+3UxU4IabEYSRhooURCXVmzc1k4bBo6QKBt8NKrJXzY8Ql21KAl
cu8IEQ==
-----END CERTIFICATE-----
